target datalayout = "e-m:e-p270:32:32-p271:32:32-p272:64:64-i64:64-i128:128-f80:128-n8:16:32:64-S128"
target triple = "x86_64-pc-linux-gnu"

%struct.REParseState = type { %struct.DynBuf, ptr, ptr, ptr, i32, i32, i32, i32, i32, i32, i32, ptr, %struct.DynBuf, %union.anon }
%struct.DynBuf = type { ptr, i64, i64, i32, ptr, ptr }
%union.anon = type { [128 x i8] }

; Function Attrs: nounwind uwtable
define internal i32 @re_parse_captures(ptr noundef %0, ptr noundef %1, ptr noundef %2) #0 {
  %4 = alloca i32, align 4
  %5 = alloca ptr, align 8
  %6 = alloca ptr, align 8
  %7 = alloca ptr, align 8
  %8 = alloca ptr, align 8
  %9 = alloca i32, align 4
  %10 = alloca [128 x i8], align 16
  store ptr %0, ptr %5, align 8
  store ptr %1, ptr %6, align 8
  store ptr %2, ptr %7, align 8
  store i32 1, ptr %9, align 4
  %11 = load ptr, ptr %6, align 8
  store i32 0, ptr %11, align 4
  %12 = load ptr, ptr %5, align 8
  %13 = getelementptr inbounds %struct.REParseState, ptr %12, i32 0, i32 3
  %14 = load ptr, ptr %13, align 8
  store ptr %14, ptr %8, align 8
  br label %15

15:                                               ; preds = %124, %3
  %16 = load ptr, ptr %8, align 8
  %17 = load ptr, ptr %5, align 8
  %18 = getelementptr inbounds %struct.REParseState, ptr %17, i32 0, i32 2
  %19 = load ptr, ptr %18, align 8
  %20 = icmp ult ptr %16, %19
  br i1 %20, label %21, label %127

21:                                               ; preds = %15
  %22 = load ptr, ptr %8, align 8
  %23 = load i8, ptr %22, align 1
  %24 = zext i8 %23 to i32
  switch i32 %24, label %123 [
    i32 40, label %25
    i32 92, label %84
    i32 91, label %87
  ]

25:                                               ; preds = %21
  %26 = load ptr, ptr %8, align 8
  %27 = getelementptr i8, ptr %26, i64 1
  %28 = load i8, ptr %27, align 1
  %29 = zext i8 %28 to i32
  %30 = icmp eq i32 %29, 63
  br i1 %30, label %31, label %76

31:                                               ; preds = %25
  %32 = load ptr, ptr %8, align 8
  %33 = getelementptr i8, ptr %32, i64 2
  %34 = load i8, ptr %33, align 1
  %35 = zext i8 %34 to i32
  %36 = icmp eq i32 %35, 60
  br i1 %36, label %37, label %75

37:                                               ; preds = %31
  %38 = load ptr, ptr %8, align 8
  %39 = getelementptr i8, ptr %38, i64 3
  %40 = load i8, ptr %39, align 1
  %41 = zext i8 %40 to i32
  %42 = icmp ne i32 %41, 61
  br i1 %42, label %43, label %75

43:                                               ; preds = %37
  %44 = load ptr, ptr %8, align 8
  %45 = getelementptr i8, ptr %44, i64 3
  %46 = load i8, ptr %45, align 1
  %47 = zext i8 %46 to i32
  %48 = icmp ne i32 %47, 33
  br i1 %48, label %49, label %75

49:                                               ; preds = %43
  %50 = load ptr, ptr %6, align 8
  store i32 1, ptr %50, align 4
  %51 = load ptr, ptr %7, align 8
  %52 = icmp ne ptr %51, null
  br i1 %52, label %53, label %68

53:                                               ; preds = %49
  %54 = load ptr, ptr %8, align 8
  %55 = getelementptr i8, ptr %54, i64 3
  store ptr %55, ptr %8, align 8
  %56 = getelementptr inbounds [128 x i8], ptr %10, i64 0, i64 0
  %57 = call i32 @re_parse_group_name(ptr noundef %56, i32 noundef 128, ptr noundef %8)
  %58 = icmp eq i32 %57, 0
  br i1 %58, label %59, label %67

59:                                               ; preds = %53
  %60 = getelementptr inbounds [128 x i8], ptr %10, i64 0, i64 0
  %61 = load ptr, ptr %7, align 8
  %62 = call i32 @strcmp(ptr noundef %60, ptr noundef %61) #10
  %63 = icmp ne i32 %62, 0
  br i1 %63, label %66, label %64

64:                                               ; preds = %59
  %65 = load i32, ptr %9, align 4
  store i32 %65, ptr %4, align 4
  br label %134

66:                                               ; preds = %59
  br label %67

67:                                               ; preds = %66, %53
  br label %68

68:                                               ; preds = %67, %49
  %69 = load i32, ptr %9, align 4
  %70 = add i32 %69, 1
  store i32 %70, ptr %9, align 4
  %71 = load i32, ptr %9, align 4
  %72 = icmp sge i32 %71, 255
  br i1 %72, label %73, label %74

73:                                               ; preds = %68
  br label %128

74:                                               ; preds = %68
  br label %75

75:                                               ; preds = %74, %43, %37, %31
  br label %83

76:                                               ; preds = %25
  %77 = load i32, ptr %9, align 4
  %78 = add i32 %77, 1
  store i32 %78, ptr %9, align 4
  %79 = load i32, ptr %9, align 4
  %80 = icmp sge i32 %79, 255
  br i1 %80, label %81, label %82

81:                                               ; preds = %76
  br label %128

82:                                               ; preds = %76
  br label %83

83:                                               ; preds = %82, %75
  br label %123

84:                                               ; preds = %21
  %85 = load ptr, ptr %8, align 8
  %86 = getelementptr i8, ptr %85, i32 1
  store ptr %86, ptr %8, align 8
  br label %123

87:                                               ; preds = %21
  %88 = load ptr, ptr %8, align 8
  %89 = load i8, ptr %88, align 1
  %90 = zext i8 %89 to i32
  %91 = icmp eq i32 %90, 93
  %92 = zext i1 %91 to i32
  %93 = add i32 1, %92
  %94 = load ptr, ptr %8, align 8
  %95 = sext i32 %93 to i64
  %96 = getelementptr i8, ptr %94, i64 %95
  store ptr %96, ptr %8, align 8
  br label %97

97:                                               ; preds = %119, %87
  %98 = load ptr, ptr %8, align 8
  %99 = load ptr, ptr %5, align 8
  %100 = getelementptr inbounds %struct.REParseState, ptr %99, i32 0, i32 2
  %101 = load ptr, ptr %100, align 8
  %102 = icmp ult ptr %98, %101
  br i1 %102, label %103, label %108

103:                                              ; preds = %97
  %104 = load ptr, ptr %8, align 8
  %105 = load i8, ptr %104, align 1
  %106 = zext i8 %105 to i32
  %107 = icmp ne i32 %106, 93
  br label %108

108:                                              ; preds = %103, %97
  %109 = phi i1 [ false, %97 ], [ %107, %103 ]
  br i1 %109, label %110, label %122

110:                                              ; preds = %108
  %111 = load ptr, ptr %8, align 8
  %112 = load i8, ptr %111, align 1
  %113 = zext i8 %112 to i32
  %114 = icmp eq i32 %113, 92
  br i1 %114, label %115, label %118

115:                                              ; preds = %110
  %116 = load ptr, ptr %8, align 8
  %117 = getelementptr i8, ptr %116, i32 1
  store ptr %117, ptr %8, align 8
  br label %118

118:                                              ; preds = %115, %110
  br label %119

119:                                              ; preds = %118
  %120 = load ptr, ptr %8, align 8
  %121 = getelementptr i8, ptr %120, i32 1
  store ptr %121, ptr %8, align 8
  br label %97, !llvm.loop !21

122:                                              ; preds = %108
  br label %123

123:                                              ; preds = %122, %84, %83, %21
  br label %124

124:                                              ; preds = %123
  %125 = load ptr, ptr %8, align 8
  %126 = getelementptr i8, ptr %125, i32 1
  store ptr %126, ptr %8, align 8
  br label %15, !llvm.loop !22

127:                                              ; preds = %15
  br label %128

128:                                              ; preds = %127, %81, %73
  %129 = load ptr, ptr %7, align 8
  %130 = icmp ne ptr %129, null
  br i1 %130, label %131, label %132

131:                                              ; preds = %128
  store i32 -1, ptr %4, align 4
  br label %134

132:                                              ; preds = %128
  %133 = load i32, ptr %9, align 4
  store i32 %133, ptr %4, align 4
  br label %134

134:                                              ; preds = %132, %131, %64
  %135 = load i32, ptr %4, align 4
  ret i32 %135
}