; Function Attrs: nounwind uwtable
define internal fastcc i32 @re_parse_captures(ptr nocapture noundef readonly %0, ptr nocapture noundef writeonly %1, ptr noundef readonly %2) unnamed_addr #2 {
  %4 = alloca ptr, align 8
  %5 = alloca [128 x i8], align 16
  store i32 0, ptr %1, align 4
  %6 = getelementptr inbounds i8, ptr %0, i64 64
  %7 = load ptr, ptr %6, align 8
  %8 = getelementptr inbounds i8, ptr %0, i64 56
  store ptr %7, ptr %4, align 8
  %9 = load ptr, ptr %8, align 8
  %10 = icmp ult ptr %7, %9
  br i1 %10, label %.lr.ph39, label %._crit_edge

.lr.ph39:                                         ; preds = %3
  %.not28 = icmp eq ptr %2, null
  br i1 %.not28, label %.lr.ph39.split.us, label %.lr.ph39.split

.lr.ph39.split.us:                                ; preds = %.lr.ph39, %.critedge.us
  %11 = phi ptr [ %37, %.critedge.us ], [ %9, %.lr.ph39 ]
  %storemerge2533.us46 = phi ptr [ %38, %.critedge.us ], [ %7, %.lr.ph39 ]
  %.038.us = phi i32 [ %.1.us, %.critedge.us ], [ 1, %.lr.ph39 ]
  %12 = load i8, ptr %storemerge2533.us46, align 1
  switch i8 %12, label %.critedge.us [
    i8 40, label %20
    i8 92, label %18
    i8 91, label %.preheader.us
  ]

.lr.ph.us:                                        ; preds = %.preheader.us, %16
  %storemerge2535.us = phi ptr [ %storemerge25.us, %16 ], [ %storemerge2533.us, %.preheader.us ]
  %storemerge.pn34.us = phi ptr [ %storemerge2532.us, %16 ], [ %storemerge2533.us46, %.preheader.us ]
  %13 = load i8, ptr %storemerge2535.us, align 1
  switch i8 %13, label %16 [
    i8 93, label %.critedge.us
    i8 92, label %14
  ]

14:                                               ; preds = %.lr.ph.us
  %15 = getelementptr i8, ptr %storemerge.pn34.us, i64 2
  br label %16

16:                                               ; preds = %14, %.lr.ph.us
  %storemerge2532.us = phi ptr [ %storemerge2535.us, %.lr.ph.us ], [ %15, %14 ]
  %storemerge25.us = getelementptr i8, ptr %storemerge2532.us, i64 1
  store ptr %storemerge25.us, ptr %4, align 8
  %17 = icmp ult ptr %storemerge25.us, %11
  br i1 %17, label %.lr.ph.us, label %.critedge.us, !llvm.loop !23

18:                                               ; preds = %.lr.ph39.split.us
  %19 = getelementptr i8, ptr %storemerge2533.us46, i64 1
  br label %.critedge.us

20:                                               ; preds = %.lr.ph39.split.us
  %21 = getelementptr i8, ptr %storemerge2533.us46, i64 1
  %22 = load i8, ptr %21, align 1
  %23 = icmp eq i8 %22, 63
  br i1 %23, label %27, label %24

24:                                               ; preds = %20
  %25 = add i32 %.038.us, 1
  %26 = icmp sgt i32 %25, 254
  br i1 %26, label %._crit_edge, label %.critedge.us

27:                                               ; preds = %20
  %28 = getelementptr i8, ptr %storemerge2533.us46, i64 2
  %29 = load i8, ptr %28, align 1
  %30 = icmp eq i8 %29, 60
  br i1 %30, label %31, label %.critedge.us

31:                                               ; preds = %27
  %32 = getelementptr i8, ptr %storemerge2533.us46, i64 3
  %33 = load i8, ptr %32, align 1
  switch i8 %33, label %34 [
    i8 61, label %.critedge.us
    i8 33, label %.critedge.us
  ]

34:                                               ; preds = %31
  store i32 1, ptr %1, align 4
  %35 = add i32 %.038.us, 1
  %36 = icmp sgt i32 %35, 254
  br i1 %36, label %._crit_edge, label %..critedge.us_crit_edge

..critedge.us_crit_edge:                          ; preds = %34
  %.pre54 = load ptr, ptr %8, align 8
  br label %.critedge.us

.critedge.us:                                     ; preds = %.lr.ph.us, %16, %..critedge.us_crit_edge, %.preheader.us, %31, %31, %27, %24, %18, %.lr.ph39.split.us
  %37 = phi ptr [ %11, %.lr.ph39.split.us ], [ %11, %18 ], [ %.pre54, %..critedge.us_crit_edge ], [ %11, %31 ], [ %11, %27 ], [ %11, %24 ], [ %11, %31 ], [ %11, %.preheader.us ], [ %11, %16 ], [ %11, %.lr.ph.us ]
  %storemerge2533.us48 = phi ptr [ %storemerge2533.us46, %.lr.ph39.split.us ], [ %19, %18 ], [ %storemerge2533.us46, %..critedge.us_crit_edge ], [ %storemerge2533.us46, %31 ], [ %storemerge2533.us46, %27 ], [ %storemerge2533.us46, %24 ], [ %storemerge2533.us46, %31 ], [ %storemerge2533.us, %.preheader.us ], [ %storemerge2535.us, %.lr.ph.us ], [ %storemerge25.us, %16 ]
  %.1.us = phi i32 [ %.038.us, %.lr.ph39.split.us ], [ %.038.us, %18 ], [ %35, %..critedge.us_crit_edge ], [ %.038.us, %31 ], [ %.038.us, %27 ], [ %25, %24 ], [ %.038.us, %31 ], [ %.038.us, %.preheader.us ], [ %.038.us, %16 ], [ %.038.us, %.lr.ph.us ]
  %38 = getelementptr i8, ptr %storemerge2533.us48, i64 1
  store ptr %38, ptr %4, align 8
  %39 = icmp ult ptr %38, %37
  br i1 %39, label %.lr.ph39.split.us, label %._crit_edge, !llvm.loop !24

.preheader.us:                                    ; preds = %.lr.ph39.split.us
  %storemerge2533.us = getelementptr i8, ptr %storemerge2533.us46, i64 1
  store ptr %storemerge2533.us, ptr %4, align 8
  %40 = icmp ult ptr %storemerge2533.us, %11
  br i1 %40, label %.lr.ph.us, label %.critedge.us

.lr.ph39.split:                                   ; preds = %.lr.ph39, %.critedge
  %41 = phi ptr [ %73, %.critedge ], [ %9, %.lr.ph39 ]
  %.038 = phi i32 [ %.1, %.critedge ], [ 1, %.lr.ph39 ]
  %storemerge37 = phi ptr [ %75, %.critedge ], [ %7, %.lr.ph39 ]
  %42 = load i8, ptr %storemerge37, align 1
  switch i8 %42, label %.critedge [
    i8 40, label %44
    i8 92, label %66
    i8 91, label %.preheader
  ]

.preheader:                                       ; preds = %.lr.ph39.split
  %storemerge2533 = getelementptr i8, ptr %storemerge37, i64 1
  store ptr %storemerge2533, ptr %4, align 8
  %43 = icmp ult ptr %storemerge2533, %41
  br i1 %43, label %.lr.ph, label %.critedge

44:                                               ; preds = %.lr.ph39.split
  %45 = getelementptr i8, ptr %storemerge37, i64 1
  %46 = load i8, ptr %45, align 1
  %47 = icmp eq i8 %46, 63
  br i1 %47, label %48, label %63

48:                                               ; preds = %44
  %49 = getelementptr i8, ptr %storemerge37, i64 2
  %50 = load i8, ptr %49, align 1
  %51 = icmp eq i8 %50, 60
  br i1 %51, label %52, label %.critedge

52:                                               ; preds = %48
  %53 = getelementptr i8, ptr %storemerge37, i64 3
  %54 = load i8, ptr %53, align 1
  switch i8 %54, label %55 [
    i8 61, label %.critedge
    i8 33, label %.critedge
  ]

55:                                               ; preds = %52
  store i32 1, ptr %1, align 4
  store ptr %53, ptr %4, align 8
  %56 = call fastcc i32 @re_parse_group_name(ptr noundef nonnull %5, ptr noundef nonnull %4)
  %57 = icmp eq i32 %56, 0
  br i1 %57, label %58, label %60

58:                                               ; preds = %55
  %59 = call i32 @strcmp(ptr noundef nonnull dereferenceable(1) %5, ptr noundef nonnull dereferenceable(1) %2) #19
  %.not29 = icmp eq i32 %59, 0
  br i1 %.not29, label %.loopexit, label %60

60:                                               ; preds = %55, %58
  %61 = add i32 %.038, 1
  %62 = icmp sgt i32 %61, 254
  br i1 %62, label %._crit_edge, label %..critedge_crit_edge

..critedge_crit_edge:                             ; preds = %60
  %.pre = load ptr, ptr %4, align 8
  %.pre53 = load ptr, ptr %8, align 8
  br label %.critedge

63:                                               ; preds = %44
  %64 = add i32 %.038, 1
  %65 = icmp sgt i32 %64, 254
  br i1 %65, label %._crit_edge, label %.critedge

66:                                               ; preds = %.lr.ph39.split
  %67 = getelementptr i8, ptr %storemerge37, i64 1
  br label %.critedge

.lr.ph:                                           ; preds = %.preheader, %71
  %storemerge2535 = phi ptr [ %storemerge25, %71 ], [ %storemerge2533, %.preheader ]
  %storemerge.pn34 = phi ptr [ %storemerge2532, %71 ], [ %storemerge37, %.preheader ]
  %68 = load i8, ptr %storemerge2535, align 1
  switch i8 %68, label %71 [
    i8 93, label %.critedge
    i8 92, label %69
  ]

69:                                               ; preds = %.lr.ph
  %70 = getelementptr i8, ptr %storemerge.pn34, i64 2
  br label %71

71:                                               ; preds = %.lr.ph, %69
  %storemerge2532 = phi ptr [ %storemerge2535, %.lr.ph ], [ %70, %69 ]
  %storemerge25 = getelementptr i8, ptr %storemerge2532, i64 1
  store ptr %storemerge25, ptr %4, align 8
  %72 = icmp ult ptr %storemerge25, %41
  br i1 %72, label %.lr.ph, label %.critedge, !llvm.loop !23

.critedge:                                        ; preds = %71, %.lr.ph, %..critedge_crit_edge, %.preheader, %52, %52, %.lr.ph39.split, %66, %63, %48
  %73 = phi ptr [ %41, %.lr.ph39.split ], [ %41, %66 ], [ %.pre53, %..critedge_crit_edge ], [ %41, %52 ], [ %41, %48 ], [ %41, %63 ], [ %41, %52 ], [ %41, %.preheader ], [ %41, %.lr.ph ], [ %41, %71 ]
  %74 = phi ptr [ %storemerge37, %.lr.ph39.split ], [ %67, %66 ], [ %.pre, %..critedge_crit_edge ], [ %storemerge37, %52 ], [ %storemerge37, %48 ], [ %storemerge37, %63 ], [ %storemerge37, %52 ], [ %storemerge2533, %.preheader ], [ %storemerge25, %71 ], [ %storemerge2535, %.lr.ph ]
  %.1 = phi i32 [ %.038, %.lr.ph39.split ], [ %.038, %66 ], [ %61, %..critedge_crit_edge ], [ %.038, %52 ], [ %.038, %48 ], [ %64, %63 ], [ %.038, %52 ], [ %.038, %.preheader ], [ %.038, %.lr.ph ], [ %.038, %71 ]
  %75 = getelementptr i8, ptr %74, i64 1
  store ptr %75, ptr %4, align 8
  %76 = icmp ult ptr %75, %73
  br i1 %76, label %.lr.ph39.split, label %._crit_edge, !llvm.loop !24

._crit_edge:                                      ; preds = %60, %63, %.critedge, %34, %24, %.critedge.us, %3
  %.2 = phi i32 [ 1, %3 ], [ %.1.us, %.critedge.us ], [ %25, %24 ], [ %35, %34 ], [ %.1, %.critedge ], [ %64, %63 ], [ %61, %60 ]
  %.not30 = icmp eq ptr %2, null
  %.2. = select i1 %.not30, i32 %.2, i32 -1
  br label %.loopexit

.loopexit:                                        ; preds = %58, %._crit_edge
  %.014 = phi i32 [ %.2., %._crit_edge ], [ %.038, %58 ]
  ret i32 %.014
}